; Function Attrs: inlinehint nounwind uwtable
define internal fastcc void @Psr_NtkAddBox(ptr noundef captures(none) %0, i32 noundef %1, i32 noundef range(i32 0, 3) %2, ptr noundef nonnull readonly captures(none) %3) unnamed_addr #4 {
  %5 = getelementptr inbounds nuw i8, ptr %0, i64 192
  %6 = getelementptr i8, ptr %0, i64 196
  %.val13 = load i32, ptr %6, align 4, !tbaa !37
  %7 = and i32 %.val13, 1
  %.not = icmp eq i32 %7, 0
  br i1 %.not, label %8, label %38

8:                                                ; preds = %4
  %9 = load i32, ptr %5, align 8, !tbaa !45
  %10 = icmp eq i32 %.val13, %9
  br i1 %10, label %11, label %.Vec_IntGrow.exit10_crit_edge.i

.Vec_IntGrow.exit10_crit_edge.i:                  ; preds = %8
  %.phi.trans.insert.i = getelementptr inbounds nuw i8, ptr %0, i64 200
  %.pre.i = load ptr, ptr %.phi.trans.insert.i, align 8, !tbaa !38
  br label %Vec_IntPush.exit

11:                                               ; preds = %8
  %12 = icmp slt i32 %.val13, 16
  br i1 %12, label %13, label %21

13:                                               ; preds = %11
  %14 = getelementptr inbounds nuw i8, ptr %0, i64 200
  %15 = load ptr, ptr %14, align 8, !tbaa !38
  %.not9.i.i = icmp eq ptr %15, null
  br i1 %.not9.i.i, label %18, label %16

16:                                               ; preds = %13
  %17 = tail call dereferenceable_or_null(64) ptr @realloc(ptr noundef nonnull %15, i64 noundef 64) #19
  br label %Vec_IntGrow.exit.i

18:                                               ; preds = %13
  %19 = tail call noalias dereferenceable_or_null(64) ptr @malloc(i64 noundef 64) #16
  br label %Vec_IntGrow.exit.i

Vec_IntGrow.exit.i:                               ; preds = %18, %16
  %20 = phi ptr [ %17, %16 ], [ %19, %18 ]
  store ptr %20, ptr %14, align 8, !tbaa !38
  store i32 16, ptr %5, align 8, !tbaa !45
  br label %Vec_IntPush.exit

21:                                               ; preds = %11
  %22 = shl nuw nsw i32 %.val13, 1
  %23 = getelementptr inbounds nuw i8, ptr %0, i64 200
  %24 = load ptr, ptr %23, align 8, !tbaa !38
  %.not9.i9.i = icmp eq ptr %24, null
  %25 = zext nneg i32 %22 to i64
  %26 = shl nuw nsw i64 %25, 2
  br i1 %.not9.i9.i, label %29, label %27

27:                                               ; preds = %21
  %28 = tail call ptr @realloc(ptr noundef nonnull %24, i64 noundef %26) #19
  br label %31

29:                                               ; preds = %21
  %30 = tail call noalias ptr @malloc(i64 noundef %26) #16
  br label %31

31:                                               ; preds = %29, %27
  %32 = phi ptr [ %28, %27 ], [ %30, %29 ]
  store ptr %32, ptr %23, align 8, !tbaa !38
  store i32 %22, ptr %5, align 8, !tbaa !45
  br label %Vec_IntPush.exit

Vec_IntPush.exit:                                 ; preds = %.Vec_IntGrow.exit10_crit_edge.i, %Vec_IntGrow.exit.i, %31
  %33 = phi ptr [ %.pre.i, %.Vec_IntGrow.exit10_crit_edge.i ], [ %32, %31 ], [ %20, %Vec_IntGrow.exit.i ]
  %34 = load i32, ptr %6, align 4, !tbaa !37
  %35 = add nsw i32 %34, 1
  store i32 %35, ptr %6, align 4, !tbaa !37
  %36 = sext i32 %34 to i64
  %37 = getelementptr inbounds i32, ptr %33, i64 %36
  store i32 -1, ptr %37, align 4, !tbaa !39
  %.val12.pre = load i32, ptr %6, align 4, !tbaa !37
  br label %38

38:                                               ; preds = %Vec_IntPush.exit, %4
  %.val12 = phi i32 [ %.val12.pre, %Vec_IntPush.exit ], [ %.val13, %4 ]
  %39 = getelementptr inbounds nuw i8, ptr %0, i64 208
  %40 = getelementptr inbounds nuw i8, ptr %0, i64 212
  %41 = load i32, ptr %40, align 4, !tbaa !37
  %42 = load i32, ptr %39, align 8, !tbaa !45
  %43 = icmp eq i32 %41, %42
  br i1 %43, label %44, label %.Vec_IntGrow.exit10_crit_edge.i14

.Vec_IntGrow.exit10_crit_edge.i14:                ; preds = %38
  %.phi.trans.insert.i15 = getelementptr inbounds nuw i8, ptr %0, i64 216
  %.pre.i16 = load ptr, ptr %.phi.trans.insert.i15, align 8, !tbaa !38
  br label %Vec_IntPush.exit20

44:                                               ; preds = %38
  %45 = icmp slt i32 %41, 16
  br i1 %45, label %46, label %54

46:                                               ; preds = %44
  %47 = getelementptr inbounds nuw i8, ptr %0, i64 216
  %48 = load ptr, ptr %47, align 8, !tbaa !38
  %.not9.i.i18 = icmp eq ptr %48, null
  br i1 %.not9.i.i18, label %51, label %49

49:                                               ; preds = %46
  %50 = tail call dereferenceable_or_null(64) ptr @realloc(ptr noundef nonnull %48, i64 noundef 64) #19
  br label %Vec_IntGrow.exit.i19

51:                                               ; preds = %46
  %52 = tail call noalias dereferenceable_or_null(64) ptr @malloc(i64 noundef 64) #16
  br label %Vec_IntGrow.exit.i19

Vec_IntGrow.exit.i19:                             ; preds = %51, %49
  %53 = phi ptr [ %50, %49 ], [ %52, %51 ]
  store ptr %53, ptr %47, align 8, !tbaa !38
  store i32 16, ptr %39, align 8, !tbaa !45
  br label %Vec_IntPush.exit20

54:                                               ; preds = %44
  %55 = shl nuw nsw i32 %41, 1
  %56 = getelementptr inbounds nuw i8, ptr %0, i64 216
  %57 = load ptr, ptr %56, align 8, !tbaa !38
  %.not9.i9.i17 = icmp eq ptr %57, null
  %58 = zext nneg i32 %55 to i64
  %59 = shl nuw nsw i64 %58, 2
  br i1 %.not9.i9.i17, label %62, label %60

60:                                               ; preds = %54
  %61 = tail call ptr @realloc(ptr noundef nonnull %57, i64 noundef %59) #19
  br label %64

62:                                               ; preds = %54
  %63 = tail call noalias ptr @malloc(i64 noundef %59) #16
  br label %64

64:                                               ; preds = %62, %60
  %65 = phi ptr [ %61, %60 ], [ %63, %62 ]
  store ptr %65, ptr %56, align 8, !tbaa !38
  store i32 %55, ptr %39, align 8, !tbaa !45
  br label %Vec_IntPush.exit20

Vec_IntPush.exit20:                               ; preds = %.Vec_IntGrow.exit10_crit_edge.i14, %Vec_IntGrow.exit.i19, %64
  %66 = phi ptr [ %.pre.i16, %.Vec_IntGrow.exit10_crit_edge.i14 ], [ %65, %64 ], [ %53, %Vec_IntGrow.exit.i19 ]
  %67 = load i32, ptr %40, align 4, !tbaa !37
  %68 = add nsw i32 %67, 1
  store i32 %68, ptr %40, align 4, !tbaa !37
  %69 = sext i32 %67 to i64
  %70 = getelementptr inbounds i32, ptr %66, i64 %69
  store i32 %.val12, ptr %70, align 4, !tbaa !39
  %71 = getelementptr i8, ptr %3, i64 4
  %.val = load i32, ptr %71, align 4, !tbaa !37
  %72 = add nsw i32 %.val, 2
  %73 = load i32, ptr %6, align 4, !tbaa !37
  %74 = load i32, ptr %5, align 8, !tbaa !45
  %75 = icmp eq i32 %73, %74
  br i1 %75, label %76, label %.Vec_IntGrow.exit10_crit_edge.i21

.Vec_IntGrow.exit10_crit_edge.i21:                ; preds = %Vec_IntPush.exit20
  %.phi.trans.insert.i22 = getelementptr inbounds nuw i8, ptr %0, i64 200
  %.pre.i23 = load ptr, ptr %.phi.trans.insert.i22, align 8, !tbaa !38
  br label %Vec_IntPush.exit27

76:                                               ; preds = %Vec_IntPush.exit20
  %77 = icmp slt i32 %73, 16
  br i1 %77, label %78, label %86

78:                                               ; preds = %76
  %79 = getelementptr inbounds nuw i8, ptr %0, i64 200
  %80 = load ptr, ptr %79, align 8, !tbaa !38
  %.not9.i.i25 = icmp eq ptr %80, null
  br i1 %.not9.i.i25, label %83, label %81

81:                                               ; preds = %78
  %82 = tail call dereferenceable_or_null(64) ptr @realloc(ptr noundef nonnull %80, i64 noundef 64) #19
  br label %Vec_IntGrow.exit.i26

83:                                               ; preds = %78
  %84 = tail call noalias dereferenceable_or_null(64) ptr @malloc(i64 noundef 64) #16
  br label %Vec_IntGrow.exit.i26

Vec_IntGrow.exit.i26:                             ; preds = %83, %81
  %85 = phi ptr [ %82, %81 ], [ %84, %83 ]
  store ptr %85, ptr %79, align 8, !tbaa !38
  store i32 16, ptr %5, align 8, !tbaa !45
  br label %Vec_IntPush.exit27

86:                                               ; preds = %76
  %87 = shl nuw nsw i32 %73, 1
  %88 = getelementptr inbounds nuw i8, ptr %0, i64 200
  %89 = load ptr, ptr %88, align 8, !tbaa !38
  %.not9.i9.i24 = icmp eq ptr %89, null
  %90 = zext nneg i32 %87 to i64
  %91 = shl nuw nsw i64 %90, 2
  br i1 %.not9.i9.i24, label %94, label %92

92:                                               ; preds = %86
  %93 = tail call ptr @realloc(ptr noundef nonnull %89, i64 noundef %91) #19
  br label %96

94:                                               ; preds = %86
  %95 = tail call noalias ptr @malloc(i64 noundef %91) #16
  br label %96

96:                                               ; preds = %94, %92
  %97 = phi ptr [ %93, %92 ], [ %95, %94 ]
  store ptr %97, ptr %88, align 8, !tbaa !38
  store i32 %87, ptr %5, align 8, !tbaa !45
  br label %Vec_IntPush.exit27

Vec_IntPush.exit27:                               ; preds = %.Vec_IntGrow.exit10_crit_edge.i21, %Vec_IntGrow.exit.i26, %96
  %98 = phi ptr [ %.pre.i23, %.Vec_IntGrow.exit10_crit_edge.i21 ], [ %97, %96 ], [ %85, %Vec_IntGrow.exit.i26 ]
  %99 = load i32, ptr %6, align 4, !tbaa !37
  %100 = add nsw i32 %99, 1
  store i32 %100, ptr %6, align 4, !tbaa !37
  %101 = sext i32 %99 to i64
  %102 = getelementptr inbounds i32, ptr %98, i64 %101
  store i32 %72, ptr %102, align 4, !tbaa !39
  %103 = load i32, ptr %6, align 4, !tbaa !37
  %104 = load i32, ptr %5, align 8, !tbaa !45
  %105 = icmp eq i32 %103, %104
  br i1 %105, label %106, label %Vec_IntPush.exit34

106:                                              ; preds = %Vec_IntPush.exit27
  %107 = icmp slt i32 %103, 16
  br i1 %107, label %Vec_IntGrow.exit.i33, label %110

Vec_IntGrow.exit.i33:                             ; preds = %106
  %108 = getelementptr inbounds nuw i8, ptr %0, i64 200
  %109 = tail call dereferenceable_or_null(64) ptr @realloc(ptr noundef nonnull %98, i64 noundef 64) #19
  store ptr %109, ptr %108, align 8, !tbaa !38
  br label %Vec_IntPush.exit34.sink.split

110:                                              ; preds = %106
  %111 = shl nuw nsw i32 %103, 1
  %112 = getelementptr inbounds nuw i8, ptr %0, i64 200
  %113 = zext nneg i32 %111 to i64
  %114 = shl nuw nsw i64 %113, 2
  %115 = tail call ptr @realloc(ptr noundef nonnull %98, i64 noundef %114) #19
  store ptr %115, ptr %112, align 8, !tbaa !38
  br label %Vec_IntPush.exit34.sink.split

Vec_IntPush.exit34.sink.split:                    ; preds = %110, %Vec_IntGrow.exit.i33
  %.sink = phi i32 [ 16, %Vec_IntGrow.exit.i33 ], [ %111, %110 ]
  %.ph = phi ptr [ %109, %Vec_IntGrow.exit.i33 ], [ %115, %110 ]
  store i32 %.sink, ptr %5, align 8, !tbaa !45
  br label %Vec_IntPush.exit34

Vec_IntPush.exit34:                               ; preds = %Vec_IntPush.exit34.sink.split, %Vec_IntPush.exit27
  %116 = phi ptr [ %98, %Vec_IntPush.exit27 ], [ %.ph, %Vec_IntPush.exit34.sink.split ]
  %117 = load i32, ptr %6, align 4, !tbaa !37
  %118 = add nsw i32 %117, 1
  store i32 %118, ptr %6, align 4, !tbaa !37
  %119 = sext i32 %117 to i64
  %120 = getelementptr inbounds i32, ptr %116, i64 %119
  store i32 %1, ptr %120, align 4, !tbaa !39
  %121 = load i32, ptr %6, align 4, !tbaa !37
  %122 = load i32, ptr %5, align 8, !tbaa !45
  %123 = icmp eq i32 %121, %122
  br i1 %123, label %124, label %Vec_IntPush.exit41

124:                                              ; preds = %Vec_IntPush.exit34
  %125 = icmp slt i32 %121, 16
  br i1 %125, label %Vec_IntGrow.exit.i40, label %128

Vec_IntGrow.exit.i40:                             ; preds = %124
  %126 = getelementptr inbounds nuw i8, ptr %0, i64 200
  %127 = tail call dereferenceable_or_null(64) ptr @realloc(ptr noundef nonnull %116, i64 noundef 64) #19
  store ptr %127, ptr %126, align 8, !tbaa !38
  br label %Vec_IntPush.exit41.sink.split

128:                                              ; preds = %124
  %129 = shl nuw nsw i32 %121, 1
  %130 = getelementptr inbounds nuw i8, ptr %0, i64 200
  %131 = zext nneg i32 %129 to i64
  %132 = shl nuw nsw i64 %131, 2
  %133 = tail call ptr @realloc(ptr noundef nonnull %116, i64 noundef %132) #19
  store ptr %133, ptr %130, align 8, !tbaa !38
  br label %Vec_IntPush.exit41.sink.split

Vec_IntPush.exit41.sink.split:                    ; preds = %128, %Vec_IntGrow.exit.i40
  %.sink46 = phi i32 [ 16, %Vec_IntGrow.exit.i40 ], [ %129, %128 ]
  %.ph45 = phi ptr [ %127, %Vec_IntGrow.exit.i40 ], [ %133, %128 ]
  store i32 %.sink46, ptr %5, align 8, !tbaa !45
  br label %Vec_IntPush.exit41

Vec_IntPush.exit41:                               ; preds = %Vec_IntPush.exit41.sink.split, %Vec_IntPush.exit34
  %134 = phi ptr [ %116, %Vec_IntPush.exit34 ], [ %.ph45, %Vec_IntPush.exit41.sink.split ]
  %135 = load i32, ptr %6, align 4, !tbaa !37
  %136 = add nsw i32 %135, 1
  store i32 %136, ptr %6, align 4, !tbaa !37
  %137 = sext i32 %135 to i64
  %138 = getelementptr inbounds i32, ptr %134, i64 %137
  store i32 %2, ptr %138, align 4, !tbaa !39
  %.val7.i = load i32, ptr %71, align 4, !tbaa !37
  %139 = icmp sgt i32 %.val7.i, 0
  br i1 %139, label %.lr.ph.i, label %Vec_IntAppend.exit

.lr.ph.i:                                         ; preds = %Vec_IntPush.exit41
  %140 = getelementptr i8, ptr %3, i64 8
  %.phi.trans.insert.i.i = getelementptr inbounds nuw i8, ptr %0, i64 200
  br label %141

141:                                              ; preds = %Vec_IntPush.exit.i, %.lr.ph.i
  %142 = phi ptr [ %134, %.lr.ph.i ], [ %.pre.i.i44, %Vec_IntPush.exit.i ]
  %indvars.iv.i = phi i64 [ 0, %.lr.ph.i ], [ %indvars.iv.next.i, %Vec_IntPush.exit.i ]
  %.val6.i = load ptr, ptr %140, align 8, !tbaa !38
  %143 = getelementptr inbounds nuw i32, ptr %.val6.i, i64 %indvars.iv.i
  %144 = load i32, ptr %143, align 4, !tbaa !39
  %145 = load i32, ptr %6, align 4, !tbaa !37
  %146 = load i32, ptr %5, align 8, !tbaa !45
  %147 = icmp eq i32 %145, %146
  br i1 %147, label %Vec_IntPush.exit.i.sink.split, label %Vec_IntPush.exit.i

Vec_IntPush.exit.i.sink.split:                    ; preds = %141
  %148 = icmp slt i32 %145, 16
  %149 = shl nuw nsw i32 %145, 1
  %150 = zext nneg i32 %149 to i64
  %151 = shl nuw nsw i64 %150, 2
  %.sink49 = select i1 %148, i64 64, i64 %151
  %.sink47 = select i1 %148, i32 16, i32 %149
  %152 = tail call ptr @realloc(ptr noundef nonnull %142, i64 noundef %.sink49) #19
  store ptr %152, ptr %.phi.trans.insert.i.i, align 8, !tbaa !38
  store i32 %.sink47, ptr %5, align 8, !tbaa !45
  br label %Vec_IntPush.exit.i

Vec_IntPush.exit.i:                               ; preds = %Vec_IntPush.exit.i.sink.split, %141
  %.pre.i.i44 = phi ptr [ %142, %141 ], [ %152, %Vec_IntPush.exit.i.sink.split ]
  %153 = load i32, ptr %6, align 4, !tbaa !37
  %154 = add nsw i32 %153, 1
  store i32 %154, ptr %6, align 4, !tbaa !37
  %155 = sext i32 %153 to i64
  %156 = getelementptr inbounds i32, ptr %.pre.i.i44, i64 %155
  store i32 %144, ptr %156, align 4, !tbaa !39
  %indvars.iv.next.i = add nuw nsw i64 %indvars.iv.i, 1
  %.val.i = load i32, ptr %71, align 4, !tbaa !37
  %157 = sext i32 %.val.i to i64
  %158 = icmp slt i64 %indvars.iv.next.i, %157
  br i1 %158, label %141, label %Vec_IntAppend.exit, !llvm.loop !46

Vec_IntAppend.exit:                               ; preds = %Vec_IntPush.exit.i, %Vec_IntPush.exit41
  ret void
}